; Function Attrs: nounwind uwtable
define internal ptr @sha3_384_newctx(ptr readnone captures(none) %0) #0 {
  %2 = tail call i32 @ossl_prov_is_running() #5
  %.not = icmp eq i32 %2, 0
  br i1 %.not, label %.thread, label %3

3:                                                ; preds = %1
  %4 = tail call noalias ptr @CRYPTO_zalloc(i64 noundef 432, ptr noundef nonnull @.str, i32 noundef 682) #5
  %5 = icmp eq ptr %4, null
  br i1 %5, label %.thread, label %6

6:                                                ; preds = %3
  %7 = tail call i32 @ossl_sha3_init(ptr noundef nonnull %4, i8 noundef zeroext 6, i64 noundef 384) #5
  %8 = getelementptr inbounds nuw i8, ptr %4, i64 400
  tail call void @llvm.memcpy.p0.p0.i64(ptr noundef nonnull align 8 dereferenceable(24) %8, ptr noundef nonnull align 8 dereferenceable(24) @sha3_generic_md, i64 24, i1 false), !tbaa.struct !3
  br label %.thread

.thread:                                          ; preds = %1, %3, %6
  %.0 = phi ptr [ %4, %6 ], [ null, %3 ], [ null, %1 ]
  ret ptr %.0
}